; Function Attrs: null_pointer_is_valid sspstrong uwtable
define internal void @prime_edt(ptr noundef readonly captures(none) %0, ptr noundef %1) #0 {
  %3 = getelementptr inbounds nuw i8, ptr %0, i64 32
  %4 = load ptr, ptr %3, align 8
  %.not = icmp eq ptr %4, null
  br i1 %.not, label %6, label %5

5:                                                ; preds = %2
  tail call void @epan_dissect_prime_with_dfilter(ptr noundef %1, ptr noundef nonnull %4)
  br label %6

6:                                                ; preds = %5, %2
  ret void
}